; Function Attrs: nounwind uwtable
define void @Cudd_Quit(ptr noundef %0) local_unnamed_addr #0 {
  %2 = getelementptr inbounds nuw i8, ptr %0, i64 408
  %3 = load ptr, ptr %2, align 8, !tbaa !24
  %.not = icmp eq ptr %3, null
  br i1 %.not, label %5, label %4

4:                                                ; preds = %1
  tail call void @free(ptr noundef nonnull %3) #6
  store ptr null, ptr %2, align 8, !tbaa !24
  br label %5

5:                                                ; preds = %4, %1
  tail call void @cuddFreeTable(ptr noundef nonnull %0) #6
  ret void
}